target datalayout = "e-m:e-p270:32:32-p271:32:32-p272:64:64-i64:64-i128:128-f80:128-n8:16:32:64-S128"
target triple = "x86_64-pc-linux-gnu"

%struct.H5O_fill_t = type { %struct.H5O_shared_t, i32, ptr, i64, ptr, i32, i32, i8 }
%struct.H5O_shared_t = type { i32, ptr, i32, %union.anon }
%union.anon = type { %struct.H5O_mesg_loc_t }
%struct.H5O_mesg_loc_t = type { i32, i64 }

@H5P_init_g = external global i8, align 1
@H5_libterm_g = external global i8, align 1
@.str.1 = private unnamed_addr constant [101 x i8] c"generated/home/dtcxzyw/WorkSpace/Projects/compilers/llvm-opt-benchmark/bench/hdf5/hdf5/src/H5Pdcpl.c\00", align 1
@H5E_FUNC_g = external global i64, align 8
@H5E_CANTINIT_g = external global i64, align 8
@.str.3 = private unnamed_addr constant [32 x i8] c"interface initialization failed\00", align 1
@H5E_BADRANGE_g = external global i64, align 8
@H5E_PLIST_g = external global i64, align 8
@__func__.H5P_is_fill_value_defined = private unnamed_addr constant [26 x i8] c"H5P_is_fill_value_defined\00", align 1
@.str.77 = private unnamed_addr constant [39 x i8] c"invalid combination of fill-value info\00", align 1

; Function Attrs: nounwind uwtable
define i32 @H5P_is_fill_value_defined(ptr noundef %0, ptr noundef %1) #0 {
  %3 = alloca ptr, align 8
  %4 = alloca ptr, align 8
  %5 = alloca i32, align 4
  %6 = alloca i8, align 1
  store ptr %0, ptr %3, align 8, !tbaa !17
  store ptr %1, ptr %4, align 8, !tbaa !16
  call void @llvm.lifetime.start.p0(i64 4, ptr %5) #11
  store i32 0, ptr %5, align 4, !tbaa !8
  call void @llvm.lifetime.start.p0(i64 1, ptr %6) #11
  store i8 0, ptr %6, align 1, !tbaa !10
  %7 = load i8, ptr @H5P_init_g, align 1, !tbaa !10, !range !12, !noundef !13
  %8 = trunc i8 %7 to i1
  br i1 %8, label %13, label %9

9:                                                ; preds = %2
  %10 = load i8, ptr @H5_libterm_g, align 1, !tbaa !10, !range !12, !noundef !13
  %11 = trunc i8 %10 to i1
  %12 = xor i1 %11, true
  br label %13

13:                                               ; preds = %9, %2
  %14 = phi i1 [ false, %2 ], [ %12, %9 ]
  %15 = xor i1 %14, true
  %16 = xor i1 %15, true
  %17 = zext i1 %16 to i32
  %18 = sext i32 %17 to i64
  %19 = call i64 @llvm.expect.i64(i64 %18, i64 0)
  %20 = icmp ne i64 %19, 0
  br i1 %20, label %21, label %44

21:                                               ; preds = %13
  store i8 1, ptr @H5P_init_g, align 1, !tbaa !10
  %22 = call i32 @H5P__init_package()
  %23 = icmp slt i32 %22, 0
  br i1 %23, label %24, label %43

24:                                               ; preds = %21
  store i8 0, ptr @H5P_init_g, align 1, !tbaa !10
  br label %25

25:                                               ; preds = %24
  br label %26

26:                                               ; preds = %25
  br label %27

27:                                               ; preds = %26
  %28 = load i64, ptr @H5E_FUNC_g, align 8, !tbaa !14
  %29 = load i64, ptr @H5E_CANTINIT_g, align 8, !tbaa !14
  %30 = call i32 (ptr, ptr, i32, i64, i64, ptr, ...) @H5E_printf_stack(ptr noundef @.str.1, ptr noundef @__func__.H5P_is_fill_value_defined, i32 noundef 3184, i64 noundef %28, i64 noundef %29, ptr noundef @.str.3)
  br label %31

31:                                               ; preds = %27
  br label %32

32:                                               ; preds = %31
  store i8 1, ptr %6, align 1, !tbaa !10
  %33 = load i8, ptr %6, align 1, !tbaa !10, !range !12, !noundef !13
  %34 = trunc i8 %33 to i1
  %35 = zext i1 %34 to i8
  store i8 %35, ptr %6, align 1, !tbaa !10
  br label %36

36:                                               ; preds = %32
  br label %37

37:                                               ; preds = %36
  br label %38

38:                                               ; preds = %37
  store i32 -1, ptr %5, align 4, !tbaa !8
  br label %118

39:                                               ; No predecessors!
  br label %40

40:                                               ; preds = %39
  br label %41

41:                                               ; preds = %40
  br label %42

42:                                               ; preds = %41
  br label %43

43:                                               ; preds = %42, %21
  br label %44

44:                                               ; preds = %43, %13
  %45 = load i8, ptr @H5P_init_g, align 1, !tbaa !10, !range !12, !noundef !13
  %46 = trunc i8 %45 to i1
  br i1 %46, label %51, label %47

47:                                               ; preds = %44
  %48 = load i8, ptr @H5_libterm_g, align 1, !tbaa !10, !range !12, !noundef !13
  %49 = trunc i8 %48 to i1
  %50 = xor i1 %49, true
  br label %51

51:                                               ; preds = %47, %44
  %52 = phi i1 [ true, %44 ], [ %50, %47 ]
  %53 = xor i1 %52, true
  %54 = xor i1 %53, true
  %55 = zext i1 %54 to i32
  %56 = sext i32 %55 to i64
  %57 = call i64 @llvm.expect.i64(i64 %56, i64 1)
  %58 = icmp ne i64 %57, 0
  br i1 %58, label %59, label %119

59:                                               ; preds = %51
  %60 = load ptr, ptr %3, align 8, !tbaa !17
  %61 = getelementptr inbounds nuw %struct.H5O_fill_t, ptr %60, i32 0, i32 3
  %62 = load i64, ptr %61, align 8, !tbaa !19
  %63 = icmp eq i64 %62, -1
  br i1 %63, label %64, label %71

64:                                               ; preds = %59
  %65 = load ptr, ptr %3, align 8, !tbaa !17
  %66 = getelementptr inbounds nuw %struct.H5O_fill_t, ptr %65, i32 0, i32 4
  %67 = load ptr, ptr %66, align 8, !tbaa !25
  %68 = icmp ne ptr %67, null
  br i1 %68, label %71, label %69

69:                                               ; preds = %64
  %70 = load ptr, ptr %4, align 8, !tbaa !16
  store i32 0, ptr %70, align 4, !tbaa !8
  br label %117

71:                                               ; preds = %64, %59
  %72 = load ptr, ptr %3, align 8, !tbaa !17
  %73 = getelementptr inbounds nuw %struct.H5O_fill_t, ptr %72, i32 0, i32 3
  %74 = load i64, ptr %73, align 8, !tbaa !19
  %75 = icmp eq i64 %74, 0
  br i1 %75, label %76, label %83

76:                                               ; preds = %71
  %77 = load ptr, ptr %3, align 8, !tbaa !17
  %78 = getelementptr inbounds nuw %struct.H5O_fill_t, ptr %77, i32 0, i32 4
  %79 = load ptr, ptr %78, align 8, !tbaa !25
  %80 = icmp ne ptr %79, null
  br i1 %80, label %83, label %81

81:                                               ; preds = %76
  %82 = load ptr, ptr %4, align 8, !tbaa !16
  store i32 1, ptr %82, align 4, !tbaa !8
  br label %116

83:                                               ; preds = %76, %71
  %84 = load ptr, ptr %3, align 8, !tbaa !17
  %85 = getelementptr inbounds nuw %struct.H5O_fill_t, ptr %84, i32 0, i32 3
  %86 = load i64, ptr %85, align 8, !tbaa !19
  %87 = icmp sgt i64 %86, 0
  br i1 %87, label %88, label %95

88:                                               ; preds = %83
  %89 = load ptr, ptr %3, align 8, !tbaa !17
  %90 = getelementptr inbounds nuw %struct.H5O_fill_t, ptr %89, i32 0, i32 4
  %91 = load ptr, ptr %90, align 8, !tbaa !25
  %92 = icmp ne ptr %91, null
  br i1 %92, label %93, label %95

93:                                               ; preds = %88
  %94 = load ptr, ptr %4, align 8, !tbaa !16
  store i32 2, ptr %94, align 4, !tbaa !8
  br label %115

95:                                               ; preds = %88, %83
  %96 = load ptr, ptr %4, align 8, !tbaa !16
  store i32 -1, ptr %96, align 4, !tbaa !8
  br label %97

97:                                               ; preds = %95
  br label %98

98:                                               ; preds = %97
  br label %99

99:                                               ; preds = %98
  %100 = load i64, ptr @H5E_PLIST_g, align 8, !tbaa !14
  %101 = load i64, ptr @H5E_BADRANGE_g, align 8, !tbaa !14
  %102 = call i32 (ptr, ptr, i32, i64, i64, ptr, ...) @H5E_printf_stack(ptr noundef @.str.1, ptr noundef @__func__.H5P_is_fill_value_defined, i32 noundef 3200, i64 noundef %100, i64 noundef %101, ptr noundef @.str.77)
  br label %103

103:                                              ; preds = %99
  br label %104

104:                                              ; preds = %103
  store i8 1, ptr %6, align 1, !tbaa !10
  %105 = load i8, ptr %6, align 1, !tbaa !10, !range !12, !noundef !13
  %106 = trunc i8 %105 to i1
  %107 = zext i1 %106 to i8
  store i8 %107, ptr %6, align 1, !tbaa !10
  br label %108

108:                                              ; preds = %104
  br label %109

109:                                              ; preds = %108
  br label %110

110:                                              ; preds = %109
  store i32 -1, ptr %5, align 4, !tbaa !8
  br label %118

111:                                              ; No predecessors!
  br label %112

112:                                              ; preds = %111
  br label %113

113:                                              ; preds = %112
  br label %114

114:                                              ; preds = %113
  br label %115

115:                                              ; preds = %114, %93
  br label %116

116:                                              ; preds = %115, %81
  br label %117

117:                                              ; preds = %116, %69
  br label %118

118:                                              ; preds = %117, %110, %38
  br label %119

119:                                              ; preds = %118, %51
  %120 = load i32, ptr %5, align 4, !tbaa !8
  call void @llvm.lifetime.end.p0(i64 1, ptr %6) #11
  call void @llvm.lifetime.end.p0(i64 4, ptr %5) #11
  ret i32 %120
}