; Function Attrs: nounwind uwtable
define range(i32 -1, 1) i32 @H5P_is_fill_value_defined(ptr noundef readonly captures(none) %0, ptr noundef writeonly captures(none) %1) local_unnamed_addr #0 {
  %3 = load i8, ptr @H5P_init_g, align 1, !tbaa !3, !range !7, !noundef !8
  %4 = trunc nuw i8 %3 to i1
  %5 = load i8, ptr @H5_libterm_g, align 1, !range !7
  %6 = trunc nuw i8 %5 to i1
  %7 = select i1 %4, i1 true, i1 %6
  br i1 %7, label %15, label %8, !prof !9

8:                                                ; preds = %2
  store i8 1, ptr @H5P_init_g, align 1, !tbaa !3
  %9 = tail call i32 @H5P__init_package() #12
  %10 = icmp slt i32 %9, 0
  br i1 %10, label %11, label %._crit_edge

._crit_edge:                                      ; preds = %8
  %.pre = load i8, ptr @H5P_init_g, align 1, !tbaa !3, !range !7
  %.pre15 = load i8, ptr @H5_libterm_g, align 1, !range !7
  %.pre16 = trunc nuw i8 %.pre to i1
  %.pre17 = trunc nuw i8 %.pre15 to i1
  br label %15

11:                                               ; preds = %8
  store i8 0, ptr @H5P_init_g, align 1, !tbaa !3
  %12 = load i64, ptr @H5E_FUNC_g, align 8, !tbaa !10
  %13 = load i64, ptr @H5E_CANTINIT_g, align 8, !tbaa !10
  %14 = tail call i32 (ptr, ptr, i32, i64, i64, ptr, ...) @H5E_printf_stack(ptr noundef nonnull @.str.1, ptr noundef nonnull @__func__.H5P_is_fill_value_defined, i32 noundef 3184, i64 noundef %12, i64 noundef %13, ptr noundef nonnull @.str.3) #12
  br label %38

15:                                               ; preds = %._crit_edge, %2
  %.pre-phi18 = phi i1 [ %.pre17, %._crit_edge ], [ %6, %2 ]
  %.pre-phi = phi i1 [ %.pre16, %._crit_edge ], [ %4, %2 ]
  %16 = xor i1 %.pre-phi18, true
  %17 = select i1 %.pre-phi, i1 true, i1 %16
  br i1 %17, label %18, label %38, !prof !9

18:                                               ; preds = %15
  %19 = getelementptr inbounds nuw i8, ptr %0, i64 56
  %20 = load i64, ptr %19, align 8, !tbaa !12
  switch i64 %20, label %29 [
    i64 -1, label %21
    i64 0, label %25
  ]

21:                                               ; preds = %18
  %22 = getelementptr inbounds nuw i8, ptr %0, i64 64
  %23 = load ptr, ptr %22, align 8, !tbaa !20
  %.not = icmp eq ptr %23, null
  br i1 %.not, label %24, label %.thread14

24:                                               ; preds = %21
  store i32 0, ptr %1, align 4, !tbaa !26
  br label %38

25:                                               ; preds = %18
  %26 = getelementptr inbounds nuw i8, ptr %0, i64 64
  %27 = load ptr, ptr %26, align 8, !tbaa !20
  %.not12 = icmp eq ptr %27, null
  br i1 %.not12, label %28, label %.thread14

28:                                               ; preds = %25
  store i32 1, ptr %1, align 4, !tbaa !26
  br label %38

29:                                               ; preds = %18
  %30 = icmp sgt i64 %20, 0
  br i1 %30, label %31, label %.thread14

31:                                               ; preds = %29
  %32 = getelementptr inbounds nuw i8, ptr %0, i64 64
  %33 = load ptr, ptr %32, align 8, !tbaa !20
  %.not13 = icmp eq ptr %33, null
  br i1 %.not13, label %.thread14, label %34

34:                                               ; preds = %31
  store i32 2, ptr %1, align 4, !tbaa !26
  br label %38

.thread14:                                        ; preds = %21, %25, %31, %29
  store i32 -1, ptr %1, align 4, !tbaa !26
  %35 = load i64, ptr @H5E_PLIST_g, align 8, !tbaa !10
  %36 = load i64, ptr @H5E_BADRANGE_g, align 8, !tbaa !10
  %37 = tail call i32 (ptr, ptr, i32, i64, i64, ptr, ...) @H5E_printf_stack(ptr noundef nonnull @.str.1, ptr noundef nonnull @__func__.H5P_is_fill_value_defined, i32 noundef 3200, i64 noundef %35, i64 noundef %36, ptr noundef nonnull @.str.77) #12
  br label %38

38:                                               ; preds = %11, %.thread14, %28, %34, %24, %15
  %.0 = phi i32 [ -1, %11 ], [ 0, %34 ], [ -1, %.thread14 ], [ 0, %28 ], [ 0, %24 ], [ 0, %15 ]
  ret i32 %.0
}